; Function Attrs: mustprogress nounwind uwtable
define internal void @_ZNK12_GLOBAL__N_116PDBErrorCategory7messageB5cxx11Ei(ptr dead_on_unwind noalias writable sret(%"class.std::__cxx11::basic_string") align 8 %0, ptr nonnull readnone align 8 captures(none) %1, i32 noundef %2) unnamed_addr #2 align 2 {
  %4 = alloca %"class.std::allocator", align 1
  %5 = alloca %"class.std::allocator", align 1
  %6 = alloca %"class.std::allocator", align 1
  %7 = alloca %"class.std::allocator", align 1
  %8 = alloca %"class.std::allocator", align 1
  %9 = alloca %"class.std::allocator", align 1
  switch i32 %2, label %22 [
    i32 6, label %10
    i32 2, label %12
    i32 3, label %14
    i32 1, label %16
    i32 4, label %18
    i32 5, label %20
  ]

10:                                               ; preds = %3
  call void @_ZNSaIcEC1Ev(ptr noundef nonnull align 1 dereferenceable(1) %4) #7
  %11 = call noundef ptr @_ZNSt7__cxx1112basic_stringIcSt11char_traitsIcESaIcEE13_M_local_dataEv(ptr noundef nonnull align 8 dereferenceable(32) %0) #7
  call void @_ZNSt7__cxx1112basic_stringIcSt11char_traitsIcESaIcEE12_Alloc_hiderC1EPcRKS3_(ptr noundef nonnull align 8 dereferenceable(32) %0, ptr noundef %11, ptr noundef nonnull align 1 dereferenceable(1) %4) #7
  call void @_ZNSt7__cxx1112basic_stringIcSt11char_traitsIcESaIcEE12_M_constructIPKcEEvT_S8_St20forward_iterator_tag(ptr noundef nonnull align 8 dereferenceable(32) %0, ptr noundef nonnull @.str.1, ptr noundef nonnull getelementptr inbounds nuw (i8, ptr @.str.1, i64 30))
  br label %23

12:                                               ; preds = %3
  call void @_ZNSaIcEC1Ev(ptr noundef nonnull align 1 dereferenceable(1) %5) #7
  %13 = call noundef ptr @_ZNSt7__cxx1112basic_stringIcSt11char_traitsIcESaIcEE13_M_local_dataEv(ptr noundef nonnull align 8 dereferenceable(32) %0) #7
  call void @_ZNSt7__cxx1112basic_stringIcSt11char_traitsIcESaIcEE12_Alloc_hiderC1EPcRKS3_(ptr noundef nonnull align 8 dereferenceable(32) %0, ptr noundef %13, ptr noundef nonnull align 1 dereferenceable(1) %5) #7
  call void @_ZNSt7__cxx1112basic_stringIcSt11char_traitsIcESaIcEE12_M_constructIPKcEEvT_S8_St20forward_iterator_tag(ptr noundef nonnull align 8 dereferenceable(32) %0, ptr noundef nonnull @.str.2, ptr noundef nonnull getelementptr inbounds nuw (i8, ptr @.str.2, i64 138))
  br label %23

14:                                               ; preds = %3
  call void @_ZNSaIcEC1Ev(ptr noundef nonnull align 1 dereferenceable(1) %6) #7
  %15 = call noundef ptr @_ZNSt7__cxx1112basic_stringIcSt11char_traitsIcESaIcEE13_M_local_dataEv(ptr noundef nonnull align 8 dereferenceable(32) %0) #7
  call void @_ZNSt7__cxx1112basic_stringIcSt11char_traitsIcESaIcEE12_Alloc_hiderC1EPcRKS3_(ptr noundef nonnull align 8 dereferenceable(32) %0, ptr noundef %15, ptr noundef nonnull align 1 dereferenceable(1) %6) #7
  call void @_ZNSt7__cxx1112basic_stringIcSt11char_traitsIcESaIcEE12_M_constructIPKcEEvT_S8_St20forward_iterator_tag(ptr noundef nonnull align 8 dereferenceable(32) %0, ptr noundef nonnull @.str.3, ptr noundef nonnull getelementptr inbounds nuw (i8, ptr @.str.3, i64 38))
  br label %23

16:                                               ; preds = %3
  call void @_ZNSaIcEC1Ev(ptr noundef nonnull align 1 dereferenceable(1) %7) #7
  %17 = call noundef ptr @_ZNSt7__cxx1112basic_stringIcSt11char_traitsIcESaIcEE13_M_local_dataEv(ptr noundef nonnull align 8 dereferenceable(32) %0) #7
  call void @_ZNSt7__cxx1112basic_stringIcSt11char_traitsIcESaIcEE12_Alloc_hiderC1EPcRKS3_(ptr noundef nonnull align 8 dereferenceable(32) %0, ptr noundef %17, ptr noundef nonnull align 1 dereferenceable(1) %7) #7
  call void @_ZNSt7__cxx1112basic_stringIcSt11char_traitsIcESaIcEE12_M_constructIPKcEEvT_S8_St20forward_iterator_tag(ptr noundef nonnull align 8 dereferenceable(32) %0, ptr noundef nonnull @.str.4, ptr noundef nonnull getelementptr inbounds nuw (i8, ptr @.str.4, i64 46))
  br label %23

18:                                               ; preds = %3
  call void @_ZNSaIcEC1Ev(ptr noundef nonnull align 1 dereferenceable(1) %8) #7
  %19 = call noundef ptr @_ZNSt7__cxx1112basic_stringIcSt11char_traitsIcESaIcEE13_M_local_dataEv(ptr noundef nonnull align 8 dereferenceable(32) %0) #7
  call void @_ZNSt7__cxx1112basic_stringIcSt11char_traitsIcESaIcEE12_Alloc_hiderC1EPcRKS3_(ptr noundef nonnull align 8 dereferenceable(32) %0, ptr noundef %19, ptr noundef nonnull align 1 dereferenceable(1) %8) #7
  call void @_ZNSt7__cxx1112basic_stringIcSt11char_traitsIcESaIcEE12_M_constructIPKcEEvT_S8_St20forward_iterator_tag(ptr noundef nonnull align 8 dereferenceable(32) %0, ptr noundef nonnull @.str.5, ptr noundef nonnull getelementptr inbounds nuw (i8, ptr @.str.5, i64 63))
  br label %23

20:                                               ; preds = %3
  call void @_ZNSaIcEC1Ev(ptr noundef nonnull align 1 dereferenceable(1) %9) #7
  %21 = call noundef ptr @_ZNSt7__cxx1112basic_stringIcSt11char_traitsIcESaIcEE13_M_local_dataEv(ptr noundef nonnull align 8 dereferenceable(32) %0) #7
  call void @_ZNSt7__cxx1112basic_stringIcSt11char_traitsIcESaIcEE12_Alloc_hiderC1EPcRKS3_(ptr noundef nonnull align 8 dereferenceable(32) %0, ptr noundef %21, ptr noundef nonnull align 1 dereferenceable(1) %9) #7
  call void @_ZNSt7__cxx1112basic_stringIcSt11char_traitsIcESaIcEE12_M_constructIPKcEEvT_S8_St20forward_iterator_tag(ptr noundef nonnull align 8 dereferenceable(32) %0, ptr noundef nonnull @.str.6, ptr noundef nonnull getelementptr inbounds nuw (i8, ptr @.str.6, i64 48))
  br label %23

22:                                               ; preds = %3
  unreachable

23:                                               ; preds = %20, %18, %16, %14, %12, %10
  %.sink = phi ptr [ %9, %20 ], [ %8, %18 ], [ %7, %16 ], [ %6, %14 ], [ %5, %12 ], [ %4, %10 ]
  call void @_ZNSaIcED1Ev(ptr noundef nonnull align 1 dereferenceable(1) %.sink) #7
  ret void
}